target datalayout = "e-m:e-p270:32:32-p271:32:32-p272:64:64-i64:64-i128:128-f80:128-n8:16:32:64-S128"
target triple = "x86_64-pc-linux-gnu"

%struct.Vec_Int_t_ = type { i32, i32, ptr }
%struct.Cnf_Dat_t_ = type { ptr, i32, i32, i32, ptr, ptr, ptr, ptr, ptr, ptr }

@.str = private unnamed_addr constant [13 x i8] c"p cnf %d %d\0A\00", align 1
@.str.4 = private unnamed_addr constant [2 x i8] c"\0A\00", align 1
@.str.6 = private unnamed_addr constant [52 x i8] c"Cnf_WriteIntoFile(): Output file cannot be opened.\0A\00", align 1
@.str.7 = private unnamed_addr constant [63 x i8] c"c Result of efficient AIG-to-CNF conversion using package CNF\0A\00", align 1
@.str.8 = private unnamed_addr constant [3 x i8] c"a \00", align 1
@.str.9 = private unnamed_addr constant [4 x i8] c"%d \00", align 1
@.str.10 = private unnamed_addr constant [3 x i8] c"0\0A\00", align 1
@.str.11 = private unnamed_addr constant [3 x i8] c"e \00", align 1
@.str.12 = private unnamed_addr constant [4 x i8] c".gz\00", align 1
@.str.13 = private unnamed_addr constant [2 x i8] c"w\00", align 1

; Function Attrs: inlinehint nounwind uwtable
define internal i32 @Cnf_Lit2Var(i32 noundef %0) #5 {
  %2 = alloca i32, align 4
  store i32 %0, ptr %2, align 4, !tbaa !20
  %3 = load i32, ptr %2, align 4, !tbaa !20
  %4 = and i32 %3, 1
  %5 = icmp ne i32 %4, 0
  br i1 %5, label %6, label %11

6:                                                ; preds = %1
  %7 = load i32, ptr %2, align 4, !tbaa !20
  %8 = ashr i32 %7, 1
  %9 = sub nsw i32 0, %8
  %10 = sub nsw i32 %9, 1
  br label %15

11:                                               ; preds = %1
  %12 = load i32, ptr %2, align 4, !tbaa !20
  %13 = ashr i32 %12, 1
  %14 = add nsw i32 %13, 1
  br label %15

15:                                               ; preds = %11, %6
  %16 = phi i32 [ %10, %6 ], [ %14, %11 ]
  ret i32 %16
}

; Function Attrs: inlinehint nounwind uwtable
define internal i32 @Cnf_Lit2Var2(i32 noundef %0) #5 {
  %2 = alloca i32, align 4
  store i32 %0, ptr %2, align 4, !tbaa !20
  %3 = load i32, ptr %2, align 4, !tbaa !20
  %4 = and i32 %3, 1
  %5 = icmp ne i32 %4, 0
  br i1 %5, label %6, label %10

6:                                                ; preds = %1
  %7 = load i32, ptr %2, align 4, !tbaa !20
  %8 = ashr i32 %7, 1
  %9 = sub nsw i32 0, %8
  br label %13

10:                                               ; preds = %1
  %11 = load i32, ptr %2, align 4, !tbaa !20
  %12 = ashr i32 %11, 1
  br label %13

13:                                               ; preds = %10, %6
  %14 = phi i32 [ %9, %6 ], [ %12, %10 ]
  ret i32 %14
}

; Function Attrs: inlinehint nounwind uwtable
define internal i32 @Vec_IntEntry(ptr noundef %0, i32 noundef %1) #5 {
  %3 = alloca ptr, align 8
  %4 = alloca i32, align 4
  store ptr %0, ptr %3, align 8, !tbaa !24
  store i32 %1, ptr %4, align 4, !tbaa !20
  %5 = load ptr, ptr %3, align 8, !tbaa !24
  %6 = getelementptr inbounds nuw %struct.Vec_Int_t_, ptr %5, i32 0, i32 2
  %7 = load ptr, ptr %6, align 8, !tbaa !28
  %8 = load i32, ptr %4, align 4, !tbaa !20
  %9 = sext i32 %8 to i64
  %10 = getelementptr inbounds i32, ptr %7, i64 %9
  %11 = load i32, ptr %10, align 4, !tbaa !20
  ret i32 %11
}

; Function Attrs: inlinehint nounwind uwtable
define internal i32 @Vec_IntSize(ptr noundef %0) #5 {
  %2 = alloca ptr, align 8
  store ptr %0, ptr %2, align 8, !tbaa !24
  %3 = load ptr, ptr %2, align 8, !tbaa !24
  %4 = getelementptr inbounds nuw %struct.Vec_Int_t_, ptr %3, i32 0, i32 1
  %5 = load i32, ptr %4, align 4, !tbaa !25
  ret i32 %5
}

; Function Attrs: nounwind uwtable
define void @Cnf_DataWriteIntoFile(ptr noundef %0, ptr noundef %1, i32 noundef %2, ptr noundef %3, ptr noundef %4) #0 {
  %6 = alloca ptr, align 8
  %7 = alloca ptr, align 8
  %8 = alloca i32, align 4
  %9 = alloca ptr, align 8
  %10 = alloca ptr, align 8
  %11 = alloca ptr, align 8
  %12 = alloca ptr, align 8
  %13 = alloca ptr, align 8
  %14 = alloca i32, align 4
  %15 = alloca i32, align 4
  %16 = alloca i32, align 4
  store ptr %0, ptr %6, align 8, !tbaa !32
  store ptr %1, ptr %7, align 8, !tbaa !31
  store i32 %2, ptr %8, align 4, !tbaa !20
  store ptr %3, ptr %9, align 8, !tbaa !24
  store ptr %4, ptr %10, align 8, !tbaa !24
  call void @llvm.lifetime.start.p0(i64 8, ptr %11) #11
  call void @llvm.lifetime.start.p0(i64 8, ptr %12) #11
  call void @llvm.lifetime.start.p0(i64 8, ptr %13) #11
  call void @llvm.lifetime.start.p0(i64 4, ptr %14) #11
  call void @llvm.lifetime.start.p0(i64 4, ptr %15) #11
  %17 = load ptr, ptr %7, align 8, !tbaa !31
  %18 = load ptr, ptr %7, align 8, !tbaa !31
  %19 = call i64 @strlen(ptr noundef %18) #14
  %20 = getelementptr inbounds nuw i8, ptr %17, i64 %19
  %21 = getelementptr inbounds i8, ptr %20, i64 -3
  %22 = call i32 @strncmp(ptr noundef %21, ptr noundef @.str.12, i64 noundef 3) #14
  %23 = icmp ne i32 %22, 0
  br i1 %23, label %30, label %24

24:                                               ; preds = %5
  %25 = load ptr, ptr %6, align 8, !tbaa !32
  %26 = load ptr, ptr %7, align 8, !tbaa !31
  %27 = load i32, ptr %8, align 4, !tbaa !20
  %28 = load ptr, ptr %9, align 8, !tbaa !24
  %29 = load ptr, ptr %10, align 8, !tbaa !24
  call void @Cnf_DataWriteIntoFileGz(ptr noundef %25, ptr noundef %26, i32 noundef %27, ptr noundef %28, ptr noundef %29)
  store i32 1, ptr %16, align 4
  br label %173

30:                                               ; preds = %5
  %31 = load ptr, ptr %7, align 8, !tbaa !31
  %32 = call noalias ptr @fopen(ptr noundef %31, ptr noundef @.str.13)
  store ptr %32, ptr %11, align 8, !tbaa !74
  %33 = load ptr, ptr %11, align 8, !tbaa !74
  %34 = icmp eq ptr %33, null
  br i1 %34, label %35, label %37

35:                                               ; preds = %30
  %36 = call i32 (ptr, ...) @printf(ptr noundef @.str.6)
  store i32 1, ptr %16, align 4
  br label %173

37:                                               ; preds = %30
  %38 = load ptr, ptr %11, align 8, !tbaa !74
  %39 = call i32 (ptr, ptr, ...) @fprintf(ptr noundef %38, ptr noundef @.str.7) #11
  %40 = load ptr, ptr %11, align 8, !tbaa !74
  %41 = load ptr, ptr %6, align 8, !tbaa !32
  %42 = getelementptr inbounds nuw %struct.Cnf_Dat_t_, ptr %41, i32 0, i32 1
  %43 = load i32, ptr %42, align 8, !tbaa !56
  %44 = load ptr, ptr %6, align 8, !tbaa !32
  %45 = getelementptr inbounds nuw %struct.Cnf_Dat_t_, ptr %44, i32 0, i32 3
  %46 = load i32, ptr %45, align 8, !tbaa !57
  %47 = call i32 (ptr, ptr, ...) @fprintf(ptr noundef %40, ptr noundef @.str, i32 noundef %43, i32 noundef %46) #11
  %48 = load ptr, ptr %9, align 8, !tbaa !24
  %49 = icmp ne ptr %48, null
  br i1 %49, label %50, label %82

50:                                               ; preds = %37
  %51 = load ptr, ptr %11, align 8, !tbaa !74
  %52 = call i32 (ptr, ptr, ...) @fprintf(ptr noundef %51, ptr noundef @.str.8) #11
  store i32 0, ptr %14, align 4, !tbaa !20
  br label %53

53:                                               ; preds = %76, %50
  %54 = load i32, ptr %14, align 4, !tbaa !20
  %55 = load ptr, ptr %9, align 8, !tbaa !24
  %56 = call i32 @Vec_IntSize(ptr noundef %55)
  %57 = icmp slt i32 %54, %56
  br i1 %57, label %58, label %62

58:                                               ; preds = %53
  %59 = load ptr, ptr %9, align 8, !tbaa !24
  %60 = load i32, ptr %14, align 4, !tbaa !20
  %61 = call i32 @Vec_IntEntry(ptr noundef %59, i32 noundef %60)
  store i32 %61, ptr %15, align 4, !tbaa !20
  br label %62

62:                                               ; preds = %58, %53
  %63 = phi i1 [ false, %53 ], [ true, %58 ]
  br i1 %63, label %64, label %79

64:                                               ; preds = %62
  %65 = load ptr, ptr %11, align 8, !tbaa !74
  %66 = load i32, ptr %8, align 4, !tbaa !20
  %67 = icmp ne i32 %66, 0
  br i1 %67, label %68, label %70

68:                                               ; preds = %64
  %69 = load i32, ptr %15, align 4, !tbaa !20
  br label %73

70:                                               ; preds = %64
  %71 = load i32, ptr %15, align 4, !tbaa !20
  %72 = add nsw i32 %71, 1
  br label %73

73:                                               ; preds = %70, %68
  %74 = phi i32 [ %69, %68 ], [ %72, %70 ]
  %75 = call i32 (ptr, ptr, ...) @fprintf(ptr noundef %65, ptr noundef @.str.9, i32 noundef %74) #11
  br label %76

76:                                               ; preds = %73
  %77 = load i32, ptr %14, align 4, !tbaa !20
  %78 = add nsw i32 %77, 1
  store i32 %78, ptr %14, align 4, !tbaa !20
  br label %53, !llvm.loop !87

79:                                               ; preds = %62
  %80 = load ptr, ptr %11, align 8, !tbaa !74
  %81 = call i32 (ptr, ptr, ...) @fprintf(ptr noundef %80, ptr noundef @.str.10) #11
  br label %82

82:                                               ; preds = %79, %37
  %83 = load ptr, ptr %10, align 8, !tbaa !24
  %84 = icmp ne ptr %83, null
  br i1 %84, label %85, label %117

85:                                               ; preds = %82
  %86 = load ptr, ptr %11, align 8, !tbaa !74
  %87 = call i32 (ptr, ptr, ...) @fprintf(ptr noundef %86, ptr noundef @.str.11) #11
  store i32 0, ptr %14, align 4, !tbaa !20
  br label %88

88:                                               ; preds = %111, %85
  %89 = load i32, ptr %14, align 4, !tbaa !20
  %90 = load ptr, ptr %10, align 8, !tbaa !24
  %91 = call i32 @Vec_IntSize(ptr noundef %90)
  %92 = icmp slt i32 %89, %91
  br i1 %92, label %93, label %97

93:                                               ; preds = %88
  %94 = load ptr, ptr %10, align 8, !tbaa !24
  %95 = load i32, ptr %14, align 4, !tbaa !20
  %96 = call i32 @Vec_IntEntry(ptr noundef %94, i32 noundef %95)
  store i32 %96, ptr %15, align 4, !tbaa !20
  br label %97

97:                                               ; preds = %93, %88
  %98 = phi i1 [ false, %88 ], [ true, %93 ]
  br i1 %98, label %99, label %114

99:                                               ; preds = %97
  %100 = load ptr, ptr %11, align 8, !tbaa !74
  %101 = load i32, ptr %8, align 4, !tbaa !20
  %102 = icmp ne i32 %101, 0
  br i1 %102, label %103, label %105

103:                                              ; preds = %99
  %104 = load i32, ptr %15, align 4, !tbaa !20
  br label %108

105:                                              ; preds = %99
  %106 = load i32, ptr %15, align 4, !tbaa !20
  %107 = add nsw i32 %106, 1
  br label %108

108:                                              ; preds = %105, %103
  %109 = phi i32 [ %104, %103 ], [ %107, %105 ]
  %110 = call i32 (ptr, ptr, ...) @fprintf(ptr noundef %100, ptr noundef @.str.9, i32 noundef %109) #11
  br label %111

111:                                              ; preds = %108
  %112 = load i32, ptr %14, align 4, !tbaa !20
  %113 = add nsw i32 %112, 1
  store i32 %113, ptr %14, align 4, !tbaa !20
  br label %88, !llvm.loop !88

114:                                              ; preds = %97
  %115 = load ptr, ptr %11, align 8, !tbaa !74
  %116 = call i32 (ptr, ptr, ...) @fprintf(ptr noundef %115, ptr noundef @.str.10) #11
  br label %117

117:                                              ; preds = %114, %82
  store i32 0, ptr %14, align 4, !tbaa !20
  br label %118

118:                                              ; preds = %165, %117
  %119 = load i32, ptr %14, align 4, !tbaa !20
  %120 = load ptr, ptr %6, align 8, !tbaa !32
  %121 = getelementptr inbounds nuw %struct.Cnf_Dat_t_, ptr %120, i32 0, i32 3
  %122 = load i32, ptr %121, align 8, !tbaa !57
  %123 = icmp slt i32 %119, %122
  br i1 %123, label %124, label %168

124:                                              ; preds = %118
  %125 = load ptr, ptr %6, align 8, !tbaa !32
  %126 = getelementptr inbounds nuw %struct.Cnf_Dat_t_, ptr %125, i32 0, i32 4
  %127 = load ptr, ptr %126, align 8, !tbaa !59
  %128 = load i32, ptr %14, align 4, !tbaa !20
  %129 = sext i32 %128 to i64
  %130 = getelementptr inbounds ptr, ptr %127, i64 %129
  %131 = load ptr, ptr %130, align 8, !tbaa !18
  store ptr %131, ptr %12, align 8, !tbaa !18
  %132 = load ptr, ptr %6, align 8, !tbaa !32
  %133 = getelementptr inbounds nuw %struct.Cnf_Dat_t_, ptr %132, i32 0, i32 4
  %134 = load ptr, ptr %133, align 8, !tbaa !59
  %135 = load i32, ptr %14, align 4, !tbaa !20
  %136 = add nsw i32 %135, 1
  %137 = sext i32 %136 to i64
  %138 = getelementptr inbounds ptr, ptr %134, i64 %137
  %139 = load ptr, ptr %138, align 8, !tbaa !18
  store ptr %139, ptr %13, align 8, !tbaa !18
  br label %140

140:                                              ; preds = %159, %124
  %141 = load ptr, ptr %12, align 8, !tbaa !18
  %142 = load ptr, ptr %13, align 8, !tbaa !18
  %143 = icmp ult ptr %141, %142
  br i1 %143, label %144, label %162

144:                                              ; preds = %140
  %145 = load ptr, ptr %11, align 8, !tbaa !74
  %146 = load i32, ptr %8, align 4, !tbaa !20
  %147 = icmp ne i32 %146, 0
  br i1 %147, label %148, label %152

148:                                              ; preds = %144
  %149 = load ptr, ptr %12, align 8, !tbaa !18
  %150 = load i32, ptr %149, align 4, !tbaa !20
  %151 = call i32 @Cnf_Lit2Var2(i32 noundef %150)
  br label %156

152:                                              ; preds = %144
  %153 = load ptr, ptr %12, align 8, !tbaa !18
  %154 = load i32, ptr %153, align 4, !tbaa !20
  %155 = call i32 @Cnf_Lit2Var(i32 noundef %154)
  br label %156

156:                                              ; preds = %152, %148
  %157 = phi i32 [ %151, %148 ], [ %155, %152 ]
  %158 = call i32 (ptr, ptr, ...) @fprintf(ptr noundef %145, ptr noundef @.str.9, i32 noundef %157) #11
  br label %159

159:                                              ; preds = %156
  %160 = load ptr, ptr %12, align 8, !tbaa !18
  %161 = getelementptr inbounds nuw i32, ptr %160, i32 1
  store ptr %161, ptr %12, align 8, !tbaa !18
  br label %140, !llvm.loop !89

162:                                              ; preds = %140
  %163 = load ptr, ptr %11, align 8, !tbaa !74
  %164 = call i32 (ptr, ptr, ...) @fprintf(ptr noundef %163, ptr noundef @.str.10) #11
  br label %165

165:                                              ; preds = %162
  %166 = load i32, ptr %14, align 4, !tbaa !20
  %167 = add nsw i32 %166, 1
  store i32 %167, ptr %14, align 4, !tbaa !20
  br label %118, !llvm.loop !90

168:                                              ; preds = %118
  %169 = load ptr, ptr %11, align 8, !tbaa !74
  %170 = call i32 (ptr, ptr, ...) @fprintf(ptr noundef %169, ptr noundef @.str.4) #11
  %171 = load ptr, ptr %11, align 8, !tbaa !74
  %172 = call i32 @fclose(ptr noundef %171)
  store i32 0, ptr %16, align 4
  br label %173

173:                                              ; preds = %168, %35, %24
  call void @llvm.lifetime.end.p0(i64 4, ptr %15) #11
  call void @llvm.lifetime.end.p0(i64 4, ptr %14) #11
  call void @llvm.lifetime.end.p0(i64 8, ptr %13) #11
  call void @llvm.lifetime.end.p0(i64 8, ptr %12) #11
  call void @llvm.lifetime.end.p0(i64 8, ptr %11) #11
  %174 = load i32, ptr %16, align 4
  switch i32 %174, label %176 [
    i32 0, label %175
    i32 1, label %175
  ]

175:                                              ; preds = %173, %173
  ret void

176:                                              ; preds = %173
  unreachable
}