; Function Attrs: nounwind uwtable
define void @Cnf_DataWriteIntoFile(ptr noundef readonly captures(none) %0, ptr noundef %1, i32 noundef %2, ptr noundef %3, ptr noundef %4) local_unnamed_addr #0 {
sub_0:
  %5 = tail call i64 @strlen(ptr noundef nonnull dereferenceable(1) %1) #20
  %6 = getelementptr inbounds nuw i8, ptr %1, i64 %5
  %7 = getelementptr inbounds i8, ptr %6, i64 -3
  %8 = load i8, ptr %7, align 1
  %.not79 = icmp eq i8 %8, 46
  br i1 %.not79, label %sub_1, label %.tail.thread

sub_1:                                            ; preds = %sub_0
  %9 = getelementptr inbounds i8, ptr %6, i64 -2
  %10 = load i8, ptr %9, align 1
  %.not80 = icmp eq i8 %10, 103
  br i1 %.not80, label %.tail, label %.tail.thread

.tail:                                            ; preds = %sub_1
  %11 = getelementptr inbounds i8, ptr %6, i64 -1
  %12 = load i8, ptr %11, align 1
  %13 = icmp eq i8 %12, 122
  br i1 %13, label %14, label %.tail.thread

14:                                               ; preds = %.tail
  tail call void @Cnf_DataWriteIntoFileGz(ptr noundef %0, ptr noundef nonnull %1, i32 noundef %2, ptr noundef %3, ptr noundef %4)
  br label %96

.tail.thread:                                     ; preds = %sub_1, %sub_0, %.tail
  %15 = tail call noalias ptr @fopen(ptr noundef nonnull %1, ptr noundef nonnull @.str.13)
  %16 = icmp eq ptr %15, null
  br i1 %16, label %17, label %18

17:                                               ; preds = %.tail.thread
  %puts = tail call i32 @puts(ptr nonnull dereferenceable(1) @str.3)
  br label %96

18:                                               ; preds = %.tail.thread
  %19 = tail call i64 @fwrite(ptr nonnull @.str.7, i64 62, i64 1, ptr nonnull %15)
  %20 = getelementptr inbounds nuw i8, ptr %0, i64 8
  %21 = load i32, ptr %20, align 8, !tbaa !48
  %22 = getelementptr inbounds nuw i8, ptr %0, i64 16
  %23 = load i32, ptr %22, align 8, !tbaa !49
  %24 = tail call i32 (ptr, ptr, ...) @fprintf(ptr noundef nonnull %15, ptr noundef nonnull @.str, i32 noundef %21, i32 noundef %23) #16
  %.not59 = icmp eq ptr %3, null
  br i1 %.not59, label %39, label %25

25:                                               ; preds = %18
  %26 = tail call i64 @fwrite(ptr nonnull @.str.8, i64 2, i64 1, ptr nonnull %15)
  %27 = getelementptr i8, ptr %3, i64 4
  %.val6468 = load i32, ptr %27, align 4, !tbaa !20
  %28 = icmp sgt i32 %.val6468, 0
  br i1 %28, label %.lr.ph, label %.critedge

.lr.ph:                                           ; preds = %25
  %29 = getelementptr i8, ptr %3, i64 8
  %.not63 = icmp eq i32 %2, 0
  %30 = zext i1 %.not63 to i32
  br label %31

31:                                               ; preds = %.lr.ph, %31
  %indvars.iv = phi i64 [ 0, %.lr.ph ], [ %indvars.iv.next, %31 ]
  %.val66 = load ptr, ptr %29, align 8, !tbaa !23
  %32 = getelementptr inbounds nuw i32, ptr %.val66, i64 %indvars.iv
  %33 = load i32, ptr %32, align 4, !tbaa !28
  %34 = add nsw i32 %33, %30
  %35 = tail call i32 (ptr, ptr, ...) @fprintf(ptr noundef nonnull %15, ptr noundef nonnull @.str.9, i32 noundef %34) #16
  %indvars.iv.next = add nuw nsw i64 %indvars.iv, 1
  %.val64 = load i32, ptr %27, align 4, !tbaa !20
  %36 = sext i32 %.val64 to i64
  %37 = icmp slt i64 %indvars.iv.next, %36
  br i1 %37, label %31, label %.critedge, !llvm.loop !78

.critedge:                                        ; preds = %31, %25
  %38 = tail call i64 @fwrite(ptr nonnull @.str.10, i64 2, i64 1, ptr nonnull %15)
  br label %39

39:                                               ; preds = %.critedge, %18
  %.not60 = icmp eq ptr %4, null
  br i1 %.not60, label %54, label %40

40:                                               ; preds = %39
  %41 = tail call i64 @fwrite(ptr nonnull @.str.11, i64 2, i64 1, ptr nonnull %15)
  %42 = getelementptr i8, ptr %4, i64 4
  %.val70 = load i32, ptr %42, align 4, !tbaa !20
  %43 = icmp sgt i32 %.val70, 0
  br i1 %43, label %.lr.ph72, label %.critedge2

.lr.ph72:                                         ; preds = %40
  %44 = getelementptr i8, ptr %4, i64 8
  %.not62 = icmp eq i32 %2, 0
  %45 = zext i1 %.not62 to i32
  br label %46

46:                                               ; preds = %.lr.ph72, %46
  %indvars.iv83 = phi i64 [ 0, %.lr.ph72 ], [ %indvars.iv.next84, %46 ]
  %.val65 = load ptr, ptr %44, align 8, !tbaa !23
  %47 = getelementptr inbounds nuw i32, ptr %.val65, i64 %indvars.iv83
  %48 = load i32, ptr %47, align 4, !tbaa !28
  %49 = add nsw i32 %48, %45
  %50 = tail call i32 (ptr, ptr, ...) @fprintf(ptr noundef nonnull %15, ptr noundef nonnull @.str.9, i32 noundef %49) #16
  %indvars.iv.next84 = add nuw nsw i64 %indvars.iv83, 1
  %.val = load i32, ptr %42, align 4, !tbaa !20
  %51 = sext i32 %.val to i64
  %52 = icmp slt i64 %indvars.iv.next84, %51
  br i1 %52, label %46, label %.critedge2, !llvm.loop !79

.critedge2:                                       ; preds = %46, %40
  %53 = tail call i64 @fwrite(ptr nonnull @.str.10, i64 2, i64 1, ptr nonnull %15)
  br label %54

54:                                               ; preds = %.critedge2, %39
  %55 = load i32, ptr %22, align 8, !tbaa !49
  %56 = icmp sgt i32 %55, 0
  br i1 %56, label %.lr.ph77, label %._crit_edge78

.lr.ph77:                                         ; preds = %54
  %57 = getelementptr inbounds nuw i8, ptr %0, i64 24
  %.not61 = icmp eq i32 %2, 0
  br i1 %.not61, label %.lr.ph77.split.us, label %.lr.ph77.split

.lr.ph77.split.us:                                ; preds = %.lr.ph77, %._crit_edge.split.us.us
  %indvars.iv89 = phi i64 [ %indvars.iv.next90, %._crit_edge.split.us.us ], [ 0, %.lr.ph77 ]
  %58 = load ptr, ptr %57, align 8, !tbaa !51
  %59 = getelementptr inbounds nuw ptr, ptr %58, i64 %indvars.iv89
  %60 = load ptr, ptr %59, align 8, !tbaa !16
  %indvars.iv.next90 = add nuw nsw i64 %indvars.iv89, 1
  %61 = getelementptr inbounds nuw ptr, ptr %58, i64 %indvars.iv.next90
  %62 = load ptr, ptr %61, align 8, !tbaa !16
  %63 = icmp ult ptr %60, %62
  br i1 %63, label %.lr.ph74.us, label %._crit_edge.split.us.us

._crit_edge.split.us.us:                          ; preds = %.lr.ph74.us, %.lr.ph77.split.us
  %64 = tail call i64 @fwrite(ptr nonnull @.str.10, i64 2, i64 1, ptr nonnull %15)
  %65 = load i32, ptr %22, align 8, !tbaa !49
  %66 = sext i32 %65 to i64
  %67 = icmp slt i64 %indvars.iv.next90, %66
  br i1 %67, label %.lr.ph77.split.us, label %._crit_edge78, !llvm.loop !80

.lr.ph74.us:                                      ; preds = %.lr.ph77.split.us, %.lr.ph74.us
  %.05573.us.us = phi ptr [ %75, %.lr.ph74.us ], [ %60, %.lr.ph77.split.us ]
  %68 = load i32, ptr %.05573.us.us, align 4, !tbaa !28
  %69 = and i32 %68, 1
  %.not.i67.us.us = icmp eq i32 %69, 0
  %70 = ashr i32 %68, 1
  %71 = xor i32 %70, -1
  %72 = add nsw i32 %70, 1
  %73 = select i1 %.not.i67.us.us, i32 %72, i32 %71
  %74 = tail call i32 (ptr, ptr, ...) @fprintf(ptr noundef nonnull %15, ptr noundef nonnull @.str.9, i32 noundef %73) #16
  %75 = getelementptr inbounds nuw i8, ptr %.05573.us.us, i64 4
  %76 = icmp ult ptr %75, %62
  br i1 %76, label %.lr.ph74.us, label %._crit_edge.split.us.us, !llvm.loop !81

.lr.ph77.split:                                   ; preds = %.lr.ph77, %._crit_edge.split
  %indvars.iv86 = phi i64 [ %indvars.iv.next87, %._crit_edge.split ], [ 0, %.lr.ph77 ]
  %77 = load ptr, ptr %57, align 8, !tbaa !51
  %78 = getelementptr inbounds nuw ptr, ptr %77, i64 %indvars.iv86
  %79 = load ptr, ptr %78, align 8, !tbaa !16
  %indvars.iv.next87 = add nuw nsw i64 %indvars.iv86, 1
  %80 = getelementptr inbounds nuw ptr, ptr %77, i64 %indvars.iv.next87
  %81 = load ptr, ptr %80, align 8, !tbaa !16
  %82 = icmp ult ptr %79, %81
  br i1 %82, label %.lr.ph74, label %._crit_edge.split

.lr.ph74:                                         ; preds = %.lr.ph77.split, %.lr.ph74
  %.05573 = phi ptr [ %89, %.lr.ph74 ], [ %79, %.lr.ph77.split ]
  %83 = load i32, ptr %.05573, align 4, !tbaa !28
  %84 = and i32 %83, 1
  %.not.i = icmp eq i32 %84, 0
  %85 = ashr i32 %83, 1
  %86 = sub nsw i32 0, %85
  %87 = select i1 %.not.i, i32 %85, i32 %86
  %88 = tail call i32 (ptr, ptr, ...) @fprintf(ptr noundef nonnull %15, ptr noundef nonnull @.str.9, i32 noundef %87) #16
  %89 = getelementptr inbounds nuw i8, ptr %.05573, i64 4
  %90 = icmp ult ptr %89, %81
  br i1 %90, label %.lr.ph74, label %._crit_edge.split, !llvm.loop !81

._crit_edge.split:                                ; preds = %.lr.ph74, %.lr.ph77.split
  %91 = tail call i64 @fwrite(ptr nonnull @.str.10, i64 2, i64 1, ptr nonnull %15)
  %92 = load i32, ptr %22, align 8, !tbaa !49
  %93 = sext i32 %92 to i64
  %94 = icmp slt i64 %indvars.iv.next87, %93
  br i1 %94, label %.lr.ph77.split, label %._crit_edge78, !llvm.loop !80

._crit_edge78:                                    ; preds = %._crit_edge.split, %._crit_edge.split.us.us, %54
  %fputc = tail call i32 @fputc(i32 10, ptr nonnull %15)
  %95 = tail call i32 @fclose(ptr noundef nonnull %15)
  br label %96

96:                                               ; preds = %._crit_edge78, %17, %14
  ret void
}